target datalayout = "e-m:e-p270:32:32-p271:32:32-p272:64:64-i64:64-i128:128-f80:128-n8:16:32:64-S128"
target triple = "x86_64-pc-linux-gnu"

%struct._zval_struct = type { %union._zend_value, %union.anon, %union.anon.2 }
%union._zend_value = type { i64 }
%union.anon = type { i32 }
%union.anon.2 = type { i32 }
%struct._zend_refcounted_h = type { i32, %union.anon.3 }
%union.anon.3 = type { i32 }
%struct._zend_string = type { %struct._zend_refcounted_h, i64, i64, [1 x i8] }
%struct.anon.0 = type { i8, i8, %union.anon.1 }
%union.anon.1 = type { i16 }

; Function Attrs: alwaysinline nounwind uwtable
define internal i32 @zend_gc_delref(ptr noundef %0) #1 {
  %2 = alloca ptr, align 8
  store ptr %0, ptr %2, align 8, !tbaa !96
  %3 = load ptr, ptr %2, align 8, !tbaa !96
  %4 = getelementptr inbounds nuw %struct._zend_refcounted_h, ptr %3, i32 0, i32 0
  %5 = load i32, ptr %4, align 4, !tbaa !98
  %6 = icmp ugt i32 %5, 0
  call void @llvm.assume(i1 %6)
  br label %7

7:                                                ; preds = %1
  br label %8

8:                                                ; preds = %7
  %9 = load ptr, ptr %2, align 8, !tbaa !96
  %10 = getelementptr inbounds nuw %struct._zend_refcounted_h, ptr %9, i32 0, i32 0
  %11 = load i32, ptr %10, align 4, !tbaa !98
  %12 = add i32 %11, -1
  store i32 %12, ptr %10, align 4, !tbaa !98
  ret i32 %12
}

; Function Attrs: alwaysinline nounwind uwtable
define internal i32 @zval_gc_flags(i32 noundef %0) #1 {
  %2 = alloca i32, align 4
  store i32 %0, ptr %2, align 4, !tbaa !44
  %3 = load i32, ptr %2, align 4, !tbaa !44
  %4 = lshr i32 %3, 0
  %5 = and i32 %4, 1008
  ret i32 %5
}

; Function Attrs: alwaysinline nounwind uwtable
define internal void @zend_string_release_ex(ptr noundef %0, i1 noundef zeroext %1) #1 {
  %3 = alloca ptr, align 8
  %4 = alloca i8, align 1
  store ptr %0, ptr %3, align 8, !tbaa !14
  %5 = zext i1 %1 to i8
  store i8 %5, ptr %4, align 1, !tbaa !51
  %6 = load ptr, ptr %3, align 8, !tbaa !14
  %7 = getelementptr inbounds nuw %struct._zend_string, ptr %6, i32 0, i32 0
  %8 = getelementptr inbounds nuw %struct._zend_refcounted_h, ptr %7, i32 0, i32 1
  %9 = load i32, ptr %8, align 4, !tbaa !11
  %10 = call i32 @zval_gc_flags(i32 noundef %9)
  %11 = and i32 %10, 64
  %12 = icmp ne i32 %11, 0
  br i1 %12, label %27, label %13

13:                                               ; preds = %2
  %14 = load ptr, ptr %3, align 8, !tbaa !14
  %15 = getelementptr inbounds nuw %struct._zend_string, ptr %14, i32 0, i32 0
  %16 = call i32 @zend_gc_delref(ptr noundef %15)
  %17 = icmp eq i32 %16, 0
  br i1 %17, label %18, label %26

18:                                               ; preds = %13
  %19 = load i8, ptr %4, align 1, !tbaa !51, !range !53, !noundef !54
  %20 = trunc i8 %19 to i1
  br i1 %20, label %21, label %23

21:                                               ; preds = %18
  %22 = load ptr, ptr %3, align 8, !tbaa !14
  call void @free(ptr noundef %22) #20
  br label %25

23:                                               ; preds = %18
  %24 = load ptr, ptr %3, align 8, !tbaa !14
  call void @_efree(ptr noundef %24)
  br label %25

25:                                               ; preds = %23, %21
  br label %26

26:                                               ; preds = %25, %13
  br label %27

27:                                               ; preds = %26, %2
  ret void
}

; Function Attrs: alwaysinline nounwind uwtable
define internal void @zend_tmp_string_release(ptr noundef %0) #1 {
  %2 = alloca ptr, align 8
  store ptr %0, ptr %2, align 8, !tbaa !14
  %3 = load ptr, ptr %2, align 8, !tbaa !14
  %4 = icmp ne ptr %3, null
  %5 = xor i1 %4, true
  %6 = xor i1 %5, true
  %7 = zext i1 %6 to i32
  %8 = sext i32 %7 to i64
  %9 = call i64 @llvm.expect.i64(i64 %8, i64 0)
  %10 = icmp ne i64 %9, 0
  br i1 %10, label %11, label %13

11:                                               ; preds = %1
  %12 = load ptr, ptr %2, align 8, !tbaa !14
  call void @zend_string_release_ex(ptr noundef %12, i1 noundef zeroext false)
  br label %13

13:                                               ; preds = %11, %1
  ret void
}

; Function Attrs: alwaysinline nounwind uwtable
define internal ptr @zval_get_tmp_string(ptr noundef %0, ptr noundef %1) #1 {
  %3 = alloca ptr, align 8
  %4 = alloca ptr, align 8
  %5 = alloca ptr, align 8
  store ptr %0, ptr %4, align 8, !tbaa !12
  store ptr %1, ptr %5, align 8, !tbaa !86
  %6 = load ptr, ptr %4, align 8, !tbaa !12
  %7 = call zeroext i8 @zval_get_type(ptr noundef %6)
  %8 = zext i8 %7 to i32
  %9 = icmp eq i32 %8, 6
  %10 = xor i1 %9, true
  %11 = xor i1 %10, true
  %12 = zext i1 %11 to i32
  %13 = sext i32 %12 to i64
  %14 = call i64 @llvm.expect.i64(i64 %13, i64 1)
  %15 = icmp ne i64 %14, 0
  br i1 %15, label %16, label %21

16:                                               ; preds = %2
  %17 = load ptr, ptr %5, align 8, !tbaa !86
  store ptr null, ptr %17, align 8, !tbaa !14
  %18 = load ptr, ptr %4, align 8, !tbaa !12
  %19 = getelementptr inbounds nuw %struct._zval_struct, ptr %18, i32 0, i32 0
  %20 = load ptr, ptr %19, align 8, !tbaa !11
  store ptr %20, ptr %3, align 8
  br label %25

21:                                               ; preds = %2
  %22 = load ptr, ptr %4, align 8, !tbaa !12
  %23 = call ptr @zval_get_string_func(ptr noundef %22)
  %24 = load ptr, ptr %5, align 8, !tbaa !86
  store ptr %23, ptr %24, align 8, !tbaa !14
  store ptr %23, ptr %3, align 8
  br label %25

25:                                               ; preds = %21, %16
  %26 = load ptr, ptr %3, align 8
  ret ptr %26
}

; Function Attrs: nounwind uwtable
define dso_local i32 @zend_binary_strcasecmp(ptr noundef %0, i64 noundef %1, ptr noundef %2, i64 noundef %3) #0 {
  %5 = alloca i32, align 4
  %6 = alloca ptr, align 8
  %7 = alloca i64, align 8
  %8 = alloca ptr, align 8
  %9 = alloca i64, align 8
  %10 = alloca i64, align 8
  %11 = alloca i32, align 4
  %12 = alloca i32, align 4
  %13 = alloca i32, align 4
  store ptr %0, ptr %6, align 8, !tbaa !4
  store i64 %1, ptr %7, align 8, !tbaa !9
  store ptr %2, ptr %8, align 8, !tbaa !4
  store i64 %3, ptr %9, align 8, !tbaa !9
  call void @llvm.lifetime.start.p0(i64 8, ptr %10) #20
  call void @llvm.lifetime.start.p0(i64 4, ptr %11) #20
  call void @llvm.lifetime.start.p0(i64 4, ptr %12) #20
  %14 = load ptr, ptr %6, align 8, !tbaa !4
  %15 = load ptr, ptr %8, align 8, !tbaa !4
  %16 = icmp eq ptr %14, %15
  br i1 %16, label %17, label %18

17:                                               ; preds = %4
  store i32 0, ptr %5, align 4
  store i32 1, ptr %13, align 4
  br label %67

18:                                               ; preds = %4
  %19 = load i64, ptr %7, align 8, !tbaa !9
  %20 = load i64, ptr %9, align 8, !tbaa !9
  %21 = icmp ult i64 %19, %20
  br i1 %21, label %22, label %24

22:                                               ; preds = %18
  %23 = load i64, ptr %7, align 8, !tbaa !9
  br label %26

24:                                               ; preds = %18
  %25 = load i64, ptr %9, align 8, !tbaa !9
  br label %26

26:                                               ; preds = %24, %22
  %27 = phi i64 [ %23, %22 ], [ %25, %24 ]
  store i64 %27, ptr %10, align 8, !tbaa !9
  br label %28

28:                                               ; preds = %54, %26
  %29 = load i64, ptr %10, align 8, !tbaa !9
  %30 = add i64 %29, -1
  store i64 %30, ptr %10, align 8, !tbaa !9
  %31 = icmp ne i64 %29, 0
  br i1 %31, label %32, label %55

32:                                               ; preds = %28
  %33 = load ptr, ptr %6, align 8, !tbaa !4
  %34 = getelementptr inbounds nuw i8, ptr %33, i32 1
  store ptr %34, ptr %6, align 8, !tbaa !4
  %35 = load i8, ptr %33, align 1, !tbaa !11
  %36 = zext i8 %35 to i64
  %37 = getelementptr inbounds nuw [256 x i8], ptr @zend_tolower_map, i64 0, i64 %36
  %38 = load i8, ptr %37, align 1, !tbaa !11
  %39 = zext i8 %38 to i32
  store i32 %39, ptr %11, align 4, !tbaa !44
  %40 = load ptr, ptr %8, align 8, !tbaa !4
  %41 = getelementptr inbounds nuw i8, ptr %40, i32 1
  store ptr %41, ptr %8, align 8, !tbaa !4
  %42 = load i8, ptr %40, align 1, !tbaa !11
  %43 = zext i8 %42 to i64
  %44 = getelementptr inbounds nuw [256 x i8], ptr @zend_tolower_map, i64 0, i64 %43
  %45 = load i8, ptr %44, align 1, !tbaa !11
  %46 = zext i8 %45 to i32
  store i32 %46, ptr %12, align 4, !tbaa !44
  %47 = load i32, ptr %11, align 4, !tbaa !44
  %48 = load i32, ptr %12, align 4, !tbaa !44
  %49 = icmp ne i32 %47, %48
  br i1 %49, label %50, label %54

50:                                               ; preds = %32
  %51 = load i32, ptr %11, align 4, !tbaa !44
  %52 = load i32, ptr %12, align 4, !tbaa !44
  %53 = sub nsw i32 %51, %52
  store i32 %53, ptr %5, align 4
  store i32 1, ptr %13, align 4
  br label %67

54:                                               ; preds = %32
  br label %28

55:                                               ; preds = %28
  %56 = load i64, ptr %7, align 8, !tbaa !9
  %57 = load i64, ptr %9, align 8, !tbaa !9
  %58 = icmp eq i64 %56, %57
  br i1 %58, label %59, label %60

59:                                               ; preds = %55
  br label %65

60:                                               ; preds = %55
  %61 = load i64, ptr %7, align 8, !tbaa !9
  %62 = load i64, ptr %9, align 8, !tbaa !9
  %63 = icmp ult i64 %61, %62
  %64 = select i1 %63, i32 -1, i32 1
  br label %65

65:                                               ; preds = %60, %59
  %66 = phi i32 [ 0, %59 ], [ %64, %60 ]
  store i32 %66, ptr %5, align 4
  store i32 1, ptr %13, align 4
  br label %67

67:                                               ; preds = %65, %50, %17
  call void @llvm.lifetime.end.p0(i64 4, ptr %12) #20
  call void @llvm.lifetime.end.p0(i64 4, ptr %11) #20
  call void @llvm.lifetime.end.p0(i64 8, ptr %10) #20
  %68 = load i32, ptr %5, align 4
  ret i32 %68
}

; Function Attrs: alwaysinline nounwind uwtable
define internal zeroext i8 @zval_get_type(ptr noundef %0) #1 {
  %2 = alloca ptr, align 8
  store ptr %0, ptr %2, align 8, !tbaa !12
  %3 = load ptr, ptr %2, align 8, !tbaa !12
  %4 = getelementptr inbounds nuw %struct._zval_struct, ptr %3, i32 0, i32 1
  %5 = getelementptr inbounds nuw %struct.anon.0, ptr %4, i32 0, i32 0
  %6 = load i8, ptr %5, align 8, !tbaa !11
  ret i8 %6
}

; Function Attrs: nounwind uwtable
define dso_local i32 @string_case_compare_function(ptr noundef %0, ptr noundef %1) #0 {
  %3 = alloca i32, align 4
  %4 = alloca ptr, align 8
  %5 = alloca ptr, align 8
  %6 = alloca ptr, align 8
  %7 = alloca ptr, align 8
  %8 = alloca ptr, align 8
  %9 = alloca ptr, align 8
  %10 = alloca i32, align 4
  store ptr %0, ptr %4, align 8, !tbaa !12
  store ptr %1, ptr %5, align 8, !tbaa !12
  %11 = load ptr, ptr %4, align 8, !tbaa !12
  %12 = call zeroext i8 @zval_get_type(ptr noundef %11)
  %13 = zext i8 %12 to i32
  %14 = icmp eq i32 %13, 6
  %15 = xor i1 %14, true
  %16 = xor i1 %15, true
  %17 = zext i1 %16 to i32
  %18 = sext i32 %17 to i64
  %19 = call i64 @llvm.expect.i64(i64 %18, i64 1)
  %20 = icmp ne i64 %19, 0
  br i1 %20, label %21, label %63

21:                                               ; preds = %2
  %22 = load ptr, ptr %5, align 8, !tbaa !12
  %23 = call zeroext i8 @zval_get_type(ptr noundef %22)
  %24 = zext i8 %23 to i32
  %25 = icmp eq i32 %24, 6
  %26 = xor i1 %25, true
  %27 = xor i1 %26, true
  %28 = zext i1 %27 to i32
  %29 = sext i32 %28 to i64
  %30 = call i64 @llvm.expect.i64(i64 %29, i64 1)
  %31 = icmp ne i64 %30, 0
  br i1 %31, label %32, label %63

32:                                               ; preds = %21
  %33 = load ptr, ptr %4, align 8, !tbaa !12
  %34 = getelementptr inbounds nuw %struct._zval_struct, ptr %33, i32 0, i32 0
  %35 = load ptr, ptr %34, align 8, !tbaa !11
  %36 = load ptr, ptr %5, align 8, !tbaa !12
  %37 = getelementptr inbounds nuw %struct._zval_struct, ptr %36, i32 0, i32 0
  %38 = load ptr, ptr %37, align 8, !tbaa !11
  %39 = icmp eq ptr %35, %38
  br i1 %39, label %40, label %41

40:                                               ; preds = %32
  store i32 0, ptr %3, align 4
  br label %84

41:                                               ; preds = %32
  %42 = load ptr, ptr %4, align 8, !tbaa !12
  %43 = getelementptr inbounds nuw %struct._zval_struct, ptr %42, i32 0, i32 0
  %44 = load ptr, ptr %43, align 8, !tbaa !11
  %45 = getelementptr inbounds nuw %struct._zend_string, ptr %44, i32 0, i32 3
  %46 = getelementptr inbounds [1 x i8], ptr %45, i64 0, i64 0
  %47 = load ptr, ptr %4, align 8, !tbaa !12
  %48 = getelementptr inbounds nuw %struct._zval_struct, ptr %47, i32 0, i32 0
  %49 = load ptr, ptr %48, align 8, !tbaa !11
  %50 = getelementptr inbounds nuw %struct._zend_string, ptr %49, i32 0, i32 2
  %51 = load i64, ptr %50, align 8, !tbaa !16
  %52 = load ptr, ptr %5, align 8, !tbaa !12
  %53 = getelementptr inbounds nuw %struct._zval_struct, ptr %52, i32 0, i32 0
  %54 = load ptr, ptr %53, align 8, !tbaa !11
  %55 = getelementptr inbounds nuw %struct._zend_string, ptr %54, i32 0, i32 3
  %56 = getelementptr inbounds [1 x i8], ptr %55, i64 0, i64 0
  %57 = load ptr, ptr %5, align 8, !tbaa !12
  %58 = getelementptr inbounds nuw %struct._zval_struct, ptr %57, i32 0, i32 0
  %59 = load ptr, ptr %58, align 8, !tbaa !11
  %60 = getelementptr inbounds nuw %struct._zend_string, ptr %59, i32 0, i32 2
  %61 = load i64, ptr %60, align 8, !tbaa !16
  %62 = call i32 @zend_binary_strcasecmp(ptr noundef %46, i64 noundef %51, ptr noundef %56, i64 noundef %61)
  store i32 %62, ptr %3, align 4
  br label %84

63:                                               ; preds = %21, %2
  call void @llvm.lifetime.start.p0(i64 8, ptr %6) #20
  call void @llvm.lifetime.start.p0(i64 8, ptr %7) #20
  call void @llvm.lifetime.start.p0(i64 8, ptr %8) #20
  %64 = load ptr, ptr %4, align 8, !tbaa !12
  %65 = call ptr @zval_get_tmp_string(ptr noundef %64, ptr noundef %6)
  store ptr %65, ptr %8, align 8, !tbaa !14
  call void @llvm.lifetime.start.p0(i64 8, ptr %9) #20
  %66 = load ptr, ptr %5, align 8, !tbaa !12
  %67 = call ptr @zval_get_tmp_string(ptr noundef %66, ptr noundef %7)
  store ptr %67, ptr %9, align 8, !tbaa !14
  call void @llvm.lifetime.start.p0(i64 4, ptr %10) #20
  %68 = load ptr, ptr %8, align 8, !tbaa !14
  %69 = getelementptr inbounds nuw %struct._zend_string, ptr %68, i32 0, i32 3
  %70 = getelementptr inbounds [1 x i8], ptr %69, i64 0, i64 0
  %71 = load ptr, ptr %8, align 8, !tbaa !14
  %72 = getelementptr inbounds nuw %struct._zend_string, ptr %71, i32 0, i32 2
  %73 = load i64, ptr %72, align 8, !tbaa !16
  %74 = load ptr, ptr %9, align 8, !tbaa !14
  %75 = getelementptr inbounds nuw %struct._zend_string, ptr %74, i32 0, i32 3
  %76 = getelementptr inbounds [1 x i8], ptr %75, i64 0, i64 0
  %77 = load ptr, ptr %9, align 8, !tbaa !14
  %78 = getelementptr inbounds nuw %struct._zend_string, ptr %77, i32 0, i32 2
  %79 = load i64, ptr %78, align 8, !tbaa !16
  %80 = call i32 @zend_binary_strcasecmp(ptr noundef %70, i64 noundef %73, ptr noundef %76, i64 noundef %79)
  store i32 %80, ptr %10, align 4, !tbaa !44
  %81 = load ptr, ptr %6, align 8, !tbaa !14
  call void @zend_tmp_string_release(ptr noundef %81)
  %82 = load ptr, ptr %7, align 8, !tbaa !14
  call void @zend_tmp_string_release(ptr noundef %82)
  %83 = load i32, ptr %10, align 4, !tbaa !44
  store i32 %83, ptr %3, align 4
  call void @llvm.lifetime.end.p0(i64 4, ptr %10) #20
  call void @llvm.lifetime.end.p0(i64 8, ptr %9) #20
  call void @llvm.lifetime.end.p0(i64 8, ptr %8) #20
  call void @llvm.lifetime.end.p0(i64 8, ptr %7) #20
  call void @llvm.lifetime.end.p0(i64 8, ptr %6) #20
  br label %84

84:                                               ; preds = %63, %41, %40
  %85 = load i32, ptr %3, align 4
  ret i32 %85
}