; Function Attrs: nounwind uwtable
define dso_local range(i32 -255, 256) i32 @string_case_compare_function(ptr noundef readonly captures(none) %0, ptr noundef readonly captures(none) %1) local_unnamed_addr #1 {
  %3 = getelementptr inbounds nuw i8, ptr %0, i64 8
  %4 = load i8, ptr %3, align 8, !tbaa !4
  %5 = icmp eq i8 %4, 6
  br i1 %5, label %6, label %zval_get_tmp_string.exit18, !prof !38

6:                                                ; preds = %2
  %7 = getelementptr inbounds nuw i8, ptr %1, i64 8
  %8 = load i8, ptr %7, align 8, !tbaa !4
  %9 = icmp eq i8 %8, 6
  %10 = load ptr, ptr %0, align 8, !tbaa !4
  br i1 %9, label %11, label %zval_get_tmp_string.exit18.thread, !prof !38

11:                                               ; preds = %6
  %12 = load ptr, ptr %1, align 8, !tbaa !4
  %13 = icmp eq ptr %10, %12
  br i1 %13, label %zend_binary_strcasecmp.exit, label %14

14:                                               ; preds = %11
  %15 = getelementptr inbounds nuw i8, ptr %10, i64 16
  %16 = load i64, ptr %15, align 8, !tbaa !10
  %17 = getelementptr inbounds nuw i8, ptr %12, i64 16
  %18 = load i64, ptr %17, align 8, !tbaa !10
  %19 = getelementptr inbounds nuw i8, ptr %12, i64 24
  %20 = getelementptr inbounds nuw i8, ptr %10, i64 24
  %21 = tail call i64 @llvm.umin.i64(i64 %16, i64 %18)
  br label %22

22:                                               ; preds = %23, %14
  %.019.i = phi ptr [ %19, %14 ], [ %30, %23 ]
  %.018.i = phi i64 [ %21, %14 ], [ %24, %23 ]
  %.017.i = phi ptr [ %20, %14 ], [ %25, %23 ]
  %.not.i23 = icmp eq i64 %.018.i, 0
  br i1 %.not.i23, label %39, label %23

23:                                               ; preds = %22
  %24 = add i64 %.018.i, -1
  %25 = getelementptr inbounds nuw i8, ptr %.017.i, i64 1
  %26 = load i8, ptr %.017.i, align 1, !tbaa !4
  %27 = zext i8 %26 to i64
  %28 = getelementptr inbounds nuw [256 x i8], ptr @zend_tolower_map, i64 0, i64 %27
  %29 = load i8, ptr %28, align 1, !tbaa !4
  %30 = getelementptr inbounds nuw i8, ptr %.019.i, i64 1
  %31 = load i8, ptr %.019.i, align 1, !tbaa !4
  %32 = zext i8 %31 to i64
  %33 = getelementptr inbounds nuw [256 x i8], ptr @zend_tolower_map, i64 0, i64 %32
  %34 = load i8, ptr %33, align 1, !tbaa !4
  %.not24.i = icmp eq i8 %29, %34
  br i1 %.not24.i, label %22, label %35

35:                                               ; preds = %23
  %36 = zext i8 %34 to i32
  %37 = zext i8 %29 to i32
  %38 = sub nsw i32 %37, %36
  br label %zend_binary_strcasecmp.exit

39:                                               ; preds = %22
  %40 = tail call i32 @llvm.ucmp.i32.i64(i64 %16, i64 %18)
  br label %zend_binary_strcasecmp.exit

zval_get_tmp_string.exit18:                       ; preds = %2
  %41 = tail call ptr @zval_get_string_func(ptr noundef nonnull %0)
  %.phi.trans.insert = getelementptr inbounds nuw i8, ptr %1, i64 8
  %.pre = load i8, ptr %.phi.trans.insert, align 8, !tbaa !4
  %42 = icmp eq i8 %.pre, 6
  br i1 %42, label %43, label %zval_get_tmp_string.exit18.thread, !prof !119

43:                                               ; preds = %zval_get_tmp_string.exit18
  %44 = load ptr, ptr %1, align 8, !tbaa !4
  br label %zval_get_tmp_string.exit

zval_get_tmp_string.exit18.thread:                ; preds = %6, %zval_get_tmp_string.exit18
  %.0.i1746 = phi ptr [ %41, %zval_get_tmp_string.exit18 ], [ %10, %6 ]
  %.03444 = phi ptr [ %41, %zval_get_tmp_string.exit18 ], [ null, %6 ]
  %45 = tail call ptr @zval_get_string_func(ptr noundef nonnull %1)
  br label %zval_get_tmp_string.exit

zval_get_tmp_string.exit:                         ; preds = %43, %zval_get_tmp_string.exit18.thread
  %.0.i1745 = phi ptr [ %41, %43 ], [ %.0.i1746, %zval_get_tmp_string.exit18.thread ]
  %.03443 = phi ptr [ %41, %43 ], [ %.03444, %zval_get_tmp_string.exit18.thread ]
  %.033 = phi ptr [ null, %43 ], [ %45, %zval_get_tmp_string.exit18.thread ]
  %.0.i = phi ptr [ %44, %43 ], [ %45, %zval_get_tmp_string.exit18.thread ]
  %46 = getelementptr inbounds nuw i8, ptr %.0.i1745, i64 16
  %47 = load i64, ptr %46, align 8, !tbaa !10
  %48 = getelementptr inbounds nuw i8, ptr %.0.i, i64 16
  %49 = load i64, ptr %48, align 8, !tbaa !10
  %50 = icmp eq ptr %.0.i1745, %.0.i
  br i1 %50, label %zend_binary_strcasecmp.exit31, label %51

51:                                               ; preds = %zval_get_tmp_string.exit
  %52 = getelementptr inbounds nuw i8, ptr %.0.i, i64 24
  %53 = getelementptr inbounds nuw i8, ptr %.0.i1745, i64 24
  %54 = tail call i64 @llvm.umin.i64(i64 %47, i64 %49)
  br label %55

55:                                               ; preds = %56, %51
  %.019.i25 = phi ptr [ %52, %51 ], [ %63, %56 ]
  %.018.i26 = phi i64 [ %54, %51 ], [ %57, %56 ]
  %.017.i27 = phi ptr [ %53, %51 ], [ %58, %56 ]
  %.not.i28 = icmp eq i64 %.018.i26, 0
  br i1 %.not.i28, label %72, label %56

56:                                               ; preds = %55
  %57 = add i64 %.018.i26, -1
  %58 = getelementptr inbounds nuw i8, ptr %.017.i27, i64 1
  %59 = load i8, ptr %.017.i27, align 1, !tbaa !4
  %60 = zext i8 %59 to i64
  %61 = getelementptr inbounds nuw [256 x i8], ptr @zend_tolower_map, i64 0, i64 %60
  %62 = load i8, ptr %61, align 1, !tbaa !4
  %63 = getelementptr inbounds nuw i8, ptr %.019.i25, i64 1
  %64 = load i8, ptr %.019.i25, align 1, !tbaa !4
  %65 = zext i8 %64 to i64
  %66 = getelementptr inbounds nuw [256 x i8], ptr @zend_tolower_map, i64 0, i64 %65
  %67 = load i8, ptr %66, align 1, !tbaa !4
  %.not24.i29 = icmp eq i8 %62, %67
  br i1 %.not24.i29, label %55, label %68

68:                                               ; preds = %56
  %69 = zext i8 %67 to i32
  %70 = zext i8 %62 to i32
  %71 = sub nsw i32 %70, %69
  br label %zend_binary_strcasecmp.exit31

72:                                               ; preds = %55
  %73 = tail call i32 @llvm.ucmp.i32.i64(i64 %47, i64 %49)
  br label %zend_binary_strcasecmp.exit31

zend_binary_strcasecmp.exit31:                    ; preds = %zval_get_tmp_string.exit, %68, %72
  %.0.i30 = phi i32 [ %71, %68 ], [ %73, %72 ], [ 0, %zval_get_tmp_string.exit ]
  %.not.i19 = icmp eq ptr %.03443, null
  br i1 %.not.i19, label %zend_tmp_string_release.exit22, label %74, !prof !38

74:                                               ; preds = %zend_binary_strcasecmp.exit31
  %75 = getelementptr inbounds nuw i8, ptr %.03443, i64 4
  %76 = load i32, ptr %75, align 4, !tbaa !4
  %77 = and i32 %76, 64
  %.not.i.i20 = icmp eq i32 %77, 0
  br i1 %.not.i.i20, label %78, label %zend_tmp_string_release.exit22

78:                                               ; preds = %74
  %79 = load i32, ptr %.03443, align 4, !tbaa !7
  %80 = icmp ne i32 %79, 0
  tail call void @llvm.assume(i1 %80)
  %81 = add i32 %79, -1
  store i32 %81, ptr %.03443, align 4, !tbaa !7
  %82 = icmp eq i32 %81, 0
  br i1 %82, label %83, label %zend_tmp_string_release.exit22

83:                                               ; preds = %78
  tail call void @_efree(ptr noundef nonnull %.03443) #28
  br label %zend_tmp_string_release.exit22

zend_tmp_string_release.exit22:                   ; preds = %74, %78, %83, %zend_binary_strcasecmp.exit31
  %.not.i = icmp eq ptr %.033, null
  br i1 %.not.i, label %zend_binary_strcasecmp.exit, label %84, !prof !38

84:                                               ; preds = %zend_tmp_string_release.exit22
  %85 = getelementptr inbounds nuw i8, ptr %.033, i64 4
  %86 = load i32, ptr %85, align 4, !tbaa !4
  %87 = and i32 %86, 64
  %.not.i.i = icmp eq i32 %87, 0
  br i1 %.not.i.i, label %88, label %zend_binary_strcasecmp.exit

88:                                               ; preds = %84
  %89 = load i32, ptr %.033, align 4, !tbaa !7
  %90 = icmp ne i32 %89, 0
  tail call void @llvm.assume(i1 %90)
  %91 = add i32 %89, -1
  store i32 %91, ptr %.033, align 4, !tbaa !7
  %92 = icmp eq i32 %91, 0
  br i1 %92, label %93, label %zend_binary_strcasecmp.exit

93:                                               ; preds = %88
  tail call void @_efree(ptr noundef nonnull %.033) #28
  br label %zend_binary_strcasecmp.exit

zend_binary_strcasecmp.exit:                      ; preds = %zend_tmp_string_release.exit22, %93, %88, %84, %39, %35, %11
  %.0 = phi i32 [ 0, %11 ], [ %38, %35 ], [ %40, %39 ], [ %.0.i30, %84 ], [ %.0.i30, %88 ], [ %.0.i30, %93 ], [ %.0.i30, %zend_tmp_string_release.exit22 ]
  ret i32 %.0
}